target datalayout = "e-m:e-p270:32:32-p271:32:32-p272:64:64-i64:64-i128:128-f80:128-n8:16:32:64-S128"
target triple = "x86_64-pc-linux-gnu"

%struct.AVFilterLink = type { ptr, ptr, ptr, ptr, i32, i32, i32, i32, %struct.AVRational, i32, i32, i32, %struct.AVChannelLayout, %struct.AVRational, ptr, i32, %struct.AVFilterFormatsConfig, %struct.AVFilterFormatsConfig }
%struct.AVChannelLayout = type { i32, i32, %union.anon.1, ptr }
%union.anon.1 = type { i64 }
%struct.AVRational = type { i32, i32 }
%struct.AVFilterFormatsConfig = type { ptr, ptr, ptr, ptr, ptr }
%struct.AVFilterContext = type { ptr, ptr, ptr, ptr, ptr, i32, ptr, ptr, i32, ptr, ptr, i32, i32, ptr, ptr, ptr, ptr, i32, ptr, i32, i32 }
%struct.PadContext = type { ptr, i32, i32, i32, i32, i32, i32, i32, i32, %struct.AVRational, ptr, ptr, ptr, ptr, [4 x i8], %struct.FFDrawContext, %struct.FFDrawColor, i32 }
%struct.FFDrawContext = type { ptr, i32, i32, [4 x i32], [4 x i8], [4 x i8], i8, i8, i32, i32, i32, [3 x [3 x double]] }
%struct.FFDrawColor = type { [4 x i8], [4 x %union.anon.2] }
%union.anon.2 = type { [4 x i32] }
%struct.AVFrame = type { [8 x ptr], [8 x i32], ptr, i32, i32, i32, i32, i32, %struct.AVRational, i64, i64, %struct.AVRational, i32, ptr, i32, i32, [8 x ptr], ptr, i32, ptr, i32, i32, i32, i32, i32, i32, i32, i64, ptr, i32, ptr, ptr, i64, i64, i64, i64, ptr, %struct.AVChannelLayout, i64 }

; Function Attrs: nounwind uwtable
define internal ptr @get_video_buffer(ptr noundef %0, i32 noundef %1, i32 noundef %2) #0 {
  %4 = alloca ptr, align 8
  %5 = alloca ptr, align 8
  %6 = alloca i32, align 4
  %7 = alloca i32, align 4
  %8 = alloca ptr, align 8
  %9 = alloca ptr, align 8
  %10 = alloca i32, align 4
  %11 = alloca i32, align 4
  %12 = alloca i32, align 4
  %13 = alloca i32, align 4
  store ptr %0, ptr %5, align 8, !tbaa !12
  store i32 %1, ptr %6, align 4, !tbaa !14
  store i32 %2, ptr %7, align 4, !tbaa !14
  call void @llvm.lifetime.start.p0(i64 8, ptr %8) #5
  %14 = load ptr, ptr %5, align 8, !tbaa !12
  %15 = getelementptr inbounds nuw %struct.AVFilterLink, ptr %14, i32 0, i32 2
  %16 = load ptr, ptr %15, align 8, !tbaa !16
  %17 = getelementptr inbounds nuw %struct.AVFilterContext, ptr %16, i32 0, i32 9
  %18 = load ptr, ptr %17, align 8, !tbaa !25
  store ptr %18, ptr %8, align 8, !tbaa !35
  call void @llvm.lifetime.start.p0(i64 8, ptr %9) #5
  call void @llvm.lifetime.start.p0(i64 4, ptr %10) #5
  %19 = load ptr, ptr %8, align 8, !tbaa !35
  %20 = getelementptr inbounds nuw %struct.PadContext, ptr %19, i32 0, i32 7
  %21 = load i32, ptr %20, align 8, !tbaa !37
  %22 = icmp sle i32 %21, 0
  br i1 %22, label %23, label %24

23:                                               ; preds = %3
  store ptr null, ptr %4, align 8
  store i32 1, ptr %11, align 4
  br label %144

24:                                               ; preds = %3
  %25 = load ptr, ptr %5, align 8, !tbaa !12
  %26 = getelementptr inbounds nuw %struct.AVFilterLink, ptr %25, i32 0, i32 2
  %27 = load ptr, ptr %26, align 8, !tbaa !16
  %28 = getelementptr inbounds nuw %struct.AVFilterContext, ptr %27, i32 0, i32 7
  %29 = load ptr, ptr %28, align 8, !tbaa !42
  %30 = getelementptr inbounds ptr, ptr %29, i64 0
  %31 = load ptr, ptr %30, align 8, !tbaa !12
  %32 = load i32, ptr %6, align 4, !tbaa !14
  %33 = load ptr, ptr %8, align 8, !tbaa !35
  %34 = getelementptr inbounds nuw %struct.PadContext, ptr %33, i32 0, i32 1
  %35 = load i32, ptr %34, align 8, !tbaa !43
  %36 = load ptr, ptr %8, align 8, !tbaa !35
  %37 = getelementptr inbounds nuw %struct.PadContext, ptr %36, i32 0, i32 5
  %38 = load i32, ptr %37, align 8, !tbaa !44
  %39 = sub nsw i32 %35, %38
  %40 = add nsw i32 %32, %39
  %41 = load i32, ptr %7, align 4, !tbaa !14
  %42 = load ptr, ptr %8, align 8, !tbaa !35
  %43 = getelementptr inbounds nuw %struct.PadContext, ptr %42, i32 0, i32 2
  %44 = load i32, ptr %43, align 4, !tbaa !45
  %45 = load ptr, ptr %8, align 8, !tbaa !35
  %46 = getelementptr inbounds nuw %struct.PadContext, ptr %45, i32 0, i32 6
  %47 = load i32, ptr %46, align 4, !tbaa !46
  %48 = sub nsw i32 %44, %47
  %49 = add nsw i32 %41, %48
  %50 = load ptr, ptr %8, align 8, !tbaa !35
  %51 = getelementptr inbounds nuw %struct.PadContext, ptr %50, i32 0, i32 3
  %52 = load i32, ptr %51, align 8, !tbaa !47
  %53 = icmp sgt i32 %52, 0
  %54 = zext i1 %53 to i32
  %55 = add nsw i32 %49, %54
  %56 = call ptr @ff_get_video_buffer(ptr noundef %31, i32 noundef %40, i32 noundef %55)
  store ptr %56, ptr %9, align 8, !tbaa !48
  %57 = load ptr, ptr %9, align 8, !tbaa !48
  %58 = icmp ne ptr %57, null
  br i1 %58, label %60, label %59

59:                                               ; preds = %24
  store ptr null, ptr %4, align 8
  store i32 1, ptr %11, align 4
  br label %144

60:                                               ; preds = %24
  %61 = load i32, ptr %6, align 4, !tbaa !14
  %62 = load ptr, ptr %9, align 8, !tbaa !48
  %63 = getelementptr inbounds nuw %struct.AVFrame, ptr %62, i32 0, i32 3
  store i32 %61, ptr %63, align 8, !tbaa !50
  %64 = load i32, ptr %7, align 4, !tbaa !14
  %65 = load ptr, ptr %9, align 8, !tbaa !48
  %66 = getelementptr inbounds nuw %struct.AVFrame, ptr %65, i32 0, i32 4
  store i32 %64, ptr %66, align 4, !tbaa !56
  store i32 0, ptr %10, align 4, !tbaa !14
  br label %67

67:                                               ; preds = %139, %60
  %68 = load i32, ptr %10, align 4, !tbaa !14
  %69 = icmp slt i32 %68, 4
  br i1 %69, label %70, label %86

70:                                               ; preds = %67
  %71 = load ptr, ptr %9, align 8, !tbaa !48
  %72 = getelementptr inbounds nuw %struct.AVFrame, ptr %71, i32 0, i32 0
  %73 = load i32, ptr %10, align 4, !tbaa !14
  %74 = sext i32 %73 to i64
  %75 = getelementptr inbounds [8 x ptr], ptr %72, i64 0, i64 %74
  %76 = load ptr, ptr %75, align 8, !tbaa !57
  %77 = icmp ne ptr %76, null
  br i1 %77, label %78, label %86

78:                                               ; preds = %70
  %79 = load ptr, ptr %9, align 8, !tbaa !48
  %80 = getelementptr inbounds nuw %struct.AVFrame, ptr %79, i32 0, i32 1
  %81 = load i32, ptr %10, align 4, !tbaa !14
  %82 = sext i32 %81 to i64
  %83 = getelementptr inbounds [8 x i32], ptr %80, i64 0, i64 %82
  %84 = load i32, ptr %83, align 4, !tbaa !14
  %85 = icmp ne i32 %84, 0
  br label %86

86:                                               ; preds = %78, %70, %67
  %87 = phi i1 [ false, %70 ], [ false, %67 ], [ %85, %78 ]
  br i1 %87, label %88, label %142

88:                                               ; preds = %86
  call void @llvm.lifetime.start.p0(i64 4, ptr %12) #5
  %89 = load ptr, ptr %8, align 8, !tbaa !35
  %90 = getelementptr inbounds nuw %struct.PadContext, ptr %89, i32 0, i32 15
  %91 = getelementptr inbounds nuw %struct.FFDrawContext, ptr %90, i32 0, i32 4
  %92 = load i32, ptr %10, align 4, !tbaa !14
  %93 = sext i32 %92 to i64
  %94 = getelementptr inbounds [4 x i8], ptr %91, i64 0, i64 %93
  %95 = load i8, ptr %94, align 1, !tbaa !58
  %96 = zext i8 %95 to i32
  store i32 %96, ptr %12, align 4, !tbaa !14
  call void @llvm.lifetime.start.p0(i64 4, ptr %13) #5
  %97 = load ptr, ptr %8, align 8, !tbaa !35
  %98 = getelementptr inbounds nuw %struct.PadContext, ptr %97, i32 0, i32 15
  %99 = getelementptr inbounds nuw %struct.FFDrawContext, ptr %98, i32 0, i32 5
  %100 = load i32, ptr %10, align 4, !tbaa !14
  %101 = sext i32 %100 to i64
  %102 = getelementptr inbounds [4 x i8], ptr %99, i64 0, i64 %101
  %103 = load i8, ptr %102, align 1, !tbaa !58
  %104 = zext i8 %103 to i32
  store i32 %104, ptr %13, align 4, !tbaa !14
  %105 = load ptr, ptr %8, align 8, !tbaa !35
  %106 = getelementptr inbounds nuw %struct.PadContext, ptr %105, i32 0, i32 3
  %107 = load i32, ptr %106, align 8, !tbaa !47
  %108 = load i32, ptr %12, align 4, !tbaa !14
  %109 = ashr i32 %107, %108
  %110 = load ptr, ptr %8, align 8, !tbaa !35
  %111 = getelementptr inbounds nuw %struct.PadContext, ptr %110, i32 0, i32 15
  %112 = getelementptr inbounds nuw %struct.FFDrawContext, ptr %111, i32 0, i32 3
  %113 = load i32, ptr %10, align 4, !tbaa !14
  %114 = sext i32 %113 to i64
  %115 = getelementptr inbounds [4 x i32], ptr %112, i64 0, i64 %114
  %116 = load i32, ptr %115, align 4, !tbaa !14
  %117 = mul nsw i32 %109, %116
  %118 = load ptr, ptr %8, align 8, !tbaa !35
  %119 = getelementptr inbounds nuw %struct.PadContext, ptr %118, i32 0, i32 4
  %120 = load i32, ptr %119, align 4, !tbaa !59
  %121 = load i32, ptr %13, align 4, !tbaa !14
  %122 = ashr i32 %120, %121
  %123 = load ptr, ptr %9, align 8, !tbaa !48
  %124 = getelementptr inbounds nuw %struct.AVFrame, ptr %123, i32 0, i32 1
  %125 = load i32, ptr %10, align 4, !tbaa !14
  %126 = sext i32 %125 to i64
  %127 = getelementptr inbounds [8 x i32], ptr %124, i64 0, i64 %126
  %128 = load i32, ptr %127, align 4, !tbaa !14
  %129 = mul nsw i32 %122, %128
  %130 = add nsw i32 %117, %129
  %131 = load ptr, ptr %9, align 8, !tbaa !48
  %132 = getelementptr inbounds nuw %struct.AVFrame, ptr %131, i32 0, i32 0
  %133 = load i32, ptr %10, align 4, !tbaa !14
  %134 = sext i32 %133 to i64
  %135 = getelementptr inbounds [8 x ptr], ptr %132, i64 0, i64 %134
  %136 = load ptr, ptr %135, align 8, !tbaa !57
  %137 = sext i32 %130 to i64
  %138 = getelementptr inbounds i8, ptr %136, i64 %137
  store ptr %138, ptr %135, align 8, !tbaa !57
  call void @llvm.lifetime.end.p0(i64 4, ptr %13) #5
  call void @llvm.lifetime.end.p0(i64 4, ptr %12) #5
  br label %139

139:                                              ; preds = %88
  %140 = load i32, ptr %10, align 4, !tbaa !14
  %141 = add nsw i32 %140, 1
  store i32 %141, ptr %10, align 4, !tbaa !14
  br label %67, !llvm.loop !60

142:                                              ; preds = %86
  %143 = load ptr, ptr %9, align 8, !tbaa !48
  store ptr %143, ptr %4, align 8
  store i32 1, ptr %11, align 4
  br label %144

144:                                              ; preds = %142, %59, %23
  call void @llvm.lifetime.end.p0(i64 4, ptr %10) #5
  call void @llvm.lifetime.end.p0(i64 8, ptr %9) #5
  call void @llvm.lifetime.end.p0(i64 8, ptr %8) #5
  %145 = load ptr, ptr %4, align 8
  ret ptr %145
}