; Function Attrs: nounwind uwtable
define internal ptr @get_video_buffer(ptr noundef readonly captures(none) %0, i32 noundef %1, i32 noundef %2) #0 {
  %4 = getelementptr inbounds nuw i8, ptr %0, i64 16
  %5 = load ptr, ptr %4, align 8, !tbaa !4
  %6 = getelementptr inbounds nuw i8, ptr %5, i64 72
  %7 = load ptr, ptr %6, align 8, !tbaa !19
  %8 = getelementptr inbounds nuw i8, ptr %7, i64 32
  %9 = load i32, ptr %8, align 8, !tbaa !29
  %10 = icmp slt i32 %9, 1
  br i1 %10, label %.critedge, label %11

11:                                               ; preds = %3
  %12 = getelementptr inbounds nuw i8, ptr %5, i64 56
  %13 = load ptr, ptr %12, align 8, !tbaa !34
  %14 = load ptr, ptr %13, align 8, !tbaa !35
  %15 = getelementptr inbounds nuw i8, ptr %7, i64 8
  %16 = load i32, ptr %15, align 8, !tbaa !37
  %17 = getelementptr inbounds nuw i8, ptr %7, i64 24
  %18 = load i32, ptr %17, align 8, !tbaa !38
  %19 = add i32 %16, %1
  %20 = sub i32 %19, %18
  %21 = getelementptr inbounds nuw i8, ptr %7, i64 12
  %22 = load i32, ptr %21, align 4, !tbaa !39
  %23 = getelementptr inbounds nuw i8, ptr %7, i64 28
  %24 = load i32, ptr %23, align 4, !tbaa !40
  %25 = getelementptr inbounds nuw i8, ptr %7, i64 16
  %26 = load i32, ptr %25, align 8, !tbaa !41
  %27 = icmp sgt i32 %26, 0
  %28 = zext i1 %27 to i32
  %29 = add i32 %22, %2
  %30 = sub i32 %29, %24
  %31 = add nsw i32 %30, %28
  %32 = tail call ptr @ff_get_video_buffer(ptr noundef %14, i32 noundef %20, i32 noundef %31) #7
  %.not = icmp eq ptr %32, null
  br i1 %.not, label %.critedge, label %33

33:                                               ; preds = %11
  %34 = getelementptr inbounds nuw i8, ptr %32, i64 104
  store i32 %1, ptr %34, align 8, !tbaa !42
  %35 = getelementptr inbounds nuw i8, ptr %32, i64 108
  store i32 %2, ptr %35, align 4, !tbaa !48
  %36 = getelementptr inbounds nuw i8, ptr %32, i64 64
  %37 = getelementptr inbounds nuw i8, ptr %7, i64 120
  %38 = getelementptr inbounds nuw i8, ptr %7, i64 124
  %39 = getelementptr inbounds nuw i8, ptr %7, i64 104
  %40 = getelementptr inbounds nuw i8, ptr %7, i64 20
  br label %41

41:                                               ; preds = %33, %47
  %indvars.iv = phi i64 [ 0, %33 ], [ %indvars.iv.next, %47 ]
  %42 = getelementptr inbounds nuw [8 x ptr], ptr %32, i64 0, i64 %indvars.iv
  %43 = load ptr, ptr %42, align 8, !tbaa !49
  %.not40 = icmp eq ptr %43, null
  br i1 %.not40, label %.critedge, label %44

44:                                               ; preds = %41
  %45 = getelementptr inbounds nuw [8 x i32], ptr %36, i64 0, i64 %indvars.iv
  %46 = load i32, ptr %45, align 4, !tbaa !50
  %.not41 = icmp eq i32 %46, 0
  br i1 %.not41, label %.critedge, label %47

47:                                               ; preds = %44
  %48 = getelementptr inbounds nuw [4 x i8], ptr %37, i64 0, i64 %indvars.iv
  %49 = load i8, ptr %48, align 1, !tbaa !51
  %50 = zext nneg i8 %49 to i32
  %51 = getelementptr inbounds nuw [4 x i8], ptr %38, i64 0, i64 %indvars.iv
  %52 = load i8, ptr %51, align 1, !tbaa !51
  %53 = zext nneg i8 %52 to i32
  %54 = load i32, ptr %25, align 8, !tbaa !41
  %55 = ashr i32 %54, %50
  %56 = getelementptr inbounds nuw [4 x i32], ptr %39, i64 0, i64 %indvars.iv
  %57 = load i32, ptr %56, align 4, !tbaa !50
  %58 = mul nsw i32 %55, %57
  %59 = load i32, ptr %40, align 4, !tbaa !52
  %60 = ashr i32 %59, %53
  %61 = mul nsw i32 %60, %46
  %62 = add nsw i32 %61, %58
  %63 = sext i32 %62 to i64
  %64 = getelementptr inbounds i8, ptr %43, i64 %63
  store ptr %64, ptr %42, align 8, !tbaa !49
  %indvars.iv.next = add nuw nsw i64 %indvars.iv, 1
  %exitcond.not = icmp eq i64 %indvars.iv.next, 4
  br i1 %exitcond.not, label %.critedge, label %41, !llvm.loop !53

.critedge:                                        ; preds = %44, %47, %41, %11, %3
  %.0 = phi ptr [ null, %3 ], [ null, %11 ], [ %32, %41 ], [ %32, %47 ], [ %32, %44 ]
  ret ptr %.0
}